; Function Attrs: nounwind uwtable
define void @arrangeQuoters_superFast_moreThen5(ptr noundef captures(none) %0, ptr noundef captures(none) %1, i32 noundef %2, i32 noundef %3, i32 noundef %4, i32 noundef %5, i32 noundef %6, i32 noundef %7, ptr noundef %8, ptr noundef captures(none) %9) local_unnamed_addr #0 {
  %11 = sext i32 %2 to i64
  %12 = icmp eq i32 %3, 0
  %13 = icmp eq i32 %4, 1
  %or.cond = and i1 %12, %13
  br i1 %or.cond, label %57, label %14

14:                                               ; preds = %10
  %15 = add nsw i32 %7, -6
  %16 = shl nuw i32 1, %15
  %.neg = shl i32 -4, %15
  %17 = sub nsw i32 %2, %16
  %18 = icmp sgt i32 %17, 0
  br i1 %18, label %.lr.ph, label %._crit_edge

.lr.ph:                                           ; preds = %14
  %19 = shl i32 8, %15
  %20 = sext i32 %16 to i64
  %21 = getelementptr inbounds i64, ptr %1, i64 %11
  %22 = sub nsw i64 0, %20
  %23 = shl i32 %3, %15
  %24 = sext i32 %23 to i64
  %25 = sub nsw i64 0, %24
  %26 = sext i32 %19 to i64
  %27 = shl i32 %4, %15
  %28 = sext i32 %27 to i64
  %29 = sub nsw i64 0, %28
  %30 = shl i32 %5, %15
  %31 = sext i32 %30 to i64
  %32 = sub nsw i64 0, %31
  %33 = shl i32 %6, %15
  %34 = sext i32 %33 to i64
  %35 = sub nsw i64 0, %34
  br label %36

36:                                               ; preds = %.lr.ph, %36
  %.054 = phi ptr [ %21, %.lr.ph ], [ %45, %36 ]
  %.05253 = phi i32 [ %17, %.lr.ph ], [ %47, %36 ]
  %37 = getelementptr inbounds i64, ptr %.054, i64 %22
  %38 = zext nneg i32 %.05253 to i64
  %39 = getelementptr inbounds nuw i64, ptr %0, i64 %38
  %40 = getelementptr inbounds i64, ptr %39, i64 %25
  tail call void @llvm.memcpy.p0.p0.i64(ptr nonnull align 8 %37, ptr nonnull align 8 %40, i64 %26, i1 false)
  %41 = getelementptr inbounds i64, ptr %37, i64 %22
  %42 = getelementptr inbounds i64, ptr %39, i64 %29
  tail call void @llvm.memcpy.p0.p0.i64(ptr nonnull align 8 %41, ptr nonnull align 8 %42, i64 %26, i1 false)
  %43 = getelementptr inbounds i64, ptr %41, i64 %22
  %44 = getelementptr inbounds i64, ptr %39, i64 %32
  tail call void @llvm.memcpy.p0.p0.i64(ptr nonnull align 8 %43, ptr nonnull align 8 %44, i64 %26, i1 false)
  %45 = getelementptr inbounds i64, ptr %43, i64 %22
  %46 = getelementptr inbounds i64, ptr %39, i64 %35
  tail call void @llvm.memcpy.p0.p0.i64(ptr nonnull align 8 %45, ptr nonnull align 8 %46, i64 %26, i1 false)
  %47 = add i32 %.05253, %.neg
  %48 = icmp sgt i32 %47, 0
  br i1 %48, label %36, label %._crit_edge, !llvm.loop !23

._crit_edge:                                      ; preds = %36, %14
  %49 = shl nsw i64 %11, 3
  tail call void @llvm.memcpy.p0.p0.i64(ptr align 8 %0, ptr align 8 %1, i64 %49, i1 false)
  %50 = load i32, ptr %9, align 4, !tbaa !6
  %51 = sub nsw i32 %3, %4
  %52 = tail call i32 @llvm.abs.i32(i32 %51, i1 true)
  %53 = shl i32 %52, 2
  %54 = add i32 %3, -4
  %55 = add i32 %54, %53
  %56 = tail call i32 @adjustInfoAfterSwap(ptr noundef %8, i32 noundef %50, i32 noundef %7, i32 noundef %55) #9
  store i32 %56, ptr %9, align 4, !tbaa !6
  br label %57

57:                                               ; preds = %10, %._crit_edge
  ret void
}